; Function Attrs: nounwind uwtable
define void @Kit_DsdTruthPartialTwo(ptr noundef %0, ptr noundef initializes((16, 24)) %1, i32 noundef %2, i32 noundef %3, ptr noundef writeonly %4, ptr noundef captures(none) %5) local_unnamed_addr #0 {
  %7 = tail call ptr @Kit_DsdTruthComputeTwo(ptr noundef %0, ptr noundef %1, i32 noundef %2, i32 noundef %3, ptr noundef %5)
  %.not = icmp eq ptr %4, null
  br i1 %.not, label %Kit_TruthCopy.exit, label %8

8:                                                ; preds = %6
  %9 = load i16, ptr %1, align 8, !tbaa !34
  %10 = zext i16 %9 to i32
  %11 = icmp ult i16 %9, 6
  %12 = add nsw i32 %10, -5
  %13 = shl nuw i32 1, %12
  %spec.select.i = select i1 %11, i32 1, i32 %13
  %14 = icmp sgt i32 %spec.select.i, 0
  br i1 %14, label %select.unfold.preheader.i, label %Kit_TruthCopy.exit

select.unfold.preheader.i:                        ; preds = %8
  %15 = zext nneg i32 %spec.select.i to i64
  br label %select.unfold.i

select.unfold.i:                                  ; preds = %select.unfold.i, %select.unfold.preheader.i
  %indvars.iv.i = phi i64 [ %15, %select.unfold.preheader.i ], [ %indvars.iv.next.i, %select.unfold.i ]
  %indvars.iv.next.i = add nsw i64 %indvars.iv.i, -1
  %16 = getelementptr inbounds nuw i32, ptr %7, i64 %indvars.iv.next.i
  %17 = load i32, ptr %16, align 4, !tbaa !20
  %18 = getelementptr inbounds nuw i32, ptr %4, i64 %indvars.iv.next.i
  store i32 %17, ptr %18, align 4, !tbaa !20
  %19 = icmp samesign ugt i64 %indvars.iv.i, 1
  br i1 %19, label %select.unfold.i, label %Kit_TruthCopy.exit, !llvm.loop !56

Kit_TruthCopy.exit:                               ; preds = %select.unfold.i, %8, %6
  ret void
}